target datalayout = "e-m:e-p270:32:32-p271:32:32-p272:64:64-i64:64-i128:128-f80:128-n8:16:32:64-S128"
target triple = "x86_64-pc-linux-gnu"

; Function Attrs: mustprogress nounwind uwtable
define hidden noundef zeroext i1 @_ZN2os5writeEiPKvm(i32 noundef %0, ptr noundef %1, i64 noundef %2) #1 align 2 {
  %4 = alloca i1, align 1
  %5 = alloca i32, align 4
  %6 = alloca ptr, align 8
  %7 = alloca i64, align 8
  %8 = alloca i64, align 8
  store i32 %0, ptr %5, align 4
  store ptr %1, ptr %6, align 8
  store i64 %2, ptr %7, align 8
  br label %9

9:                                                ; preds = %20, %3
  %10 = load i64, ptr %7, align 8
  %11 = icmp ugt i64 %10, 0
  br i1 %11, label %12, label %27

12:                                               ; preds = %9
  %13 = load i32, ptr %5, align 4
  %14 = load ptr, ptr %6, align 8
  %15 = load i64, ptr %7, align 8
  %16 = call noundef i64 @_ZN2os8pd_writeEiPKvm(i32 noundef %13, ptr noundef %14, i64 noundef %15)
  store i64 %16, ptr %8, align 8
  %17 = load i64, ptr %8, align 8
  %18 = icmp eq i64 %17, -1
  br i1 %18, label %19, label %20

19:                                               ; preds = %12
  store i1 false, ptr %4, align 1
  br label %28

20:                                               ; preds = %12
  %21 = load ptr, ptr %6, align 8
  %22 = load i64, ptr %8, align 8
  %23 = getelementptr inbounds i8, ptr %21, i64 %22
  store ptr %23, ptr %6, align 8
  %24 = load i64, ptr %8, align 8
  %25 = load i64, ptr %7, align 8
  %26 = sub i64 %25, %24
  store i64 %26, ptr %7, align 8
  br label %9, !llvm.loop !23

27:                                               ; preds = %9
  store i1 true, ptr %4, align 1
  br label %28

28:                                               ; preds = %27, %19
  %29 = load i1, ptr %4, align 1
  ret i1 %29
}