; Function Attrs: mustprogress nounwind uwtable
define hidden noundef zeroext i1 @_ZN2os5writeEiPKvm(i32 noundef %0, ptr noundef %1, i64 noundef %2) local_unnamed_addr #3 align 2 {
  %.not12 = icmp eq i64 %2, 0
  br i1 %.not12, label %._crit_edge, label %.lr.ph

.lr.ph:                                           ; preds = %3, %.lr.ph
  %.0914 = phi i64 [ %6, %.lr.ph ], [ %2, %3 ]
  %.01013 = phi ptr [ %5, %.lr.ph ], [ %1, %3 ]
  %4 = tail call noundef i64 @_ZN2os8pd_writeEiPKvm(i32 noundef %0, ptr noundef %.01013, i64 noundef %.0914) #28
  %.not18 = icmp ne i64 %4, -1
  %5 = getelementptr inbounds i8, ptr %.01013, i64 %4
  %6 = sub i64 %.0914, %4
  %.not = icmp ne i64 %6, 0
  %or.cond.not = and i1 %.not, %.not18
  br i1 %or.cond.not, label %.lr.ph, label %._crit_edge, !llvm.loop !26

._crit_edge:                                      ; preds = %.lr.ph, %3
  %.not.lcssa = phi i1 [ true, %3 ], [ %.not18, %.lr.ph ]
  ret i1 %.not.lcssa
}